; ModuleID = '5/434.c'
source_filename = "5/434.c"
target datalayout = "e-m:e-p270:32:32-p271:32:32-p272:64:64-i64:64-f80:128-n8:16:32:64-S128"
target triple = "x86_64-pc-linux-gnu"

@.str = private unnamed_addr constant [4 x i8] c"%lf\00", align 1
@.str.1 = private unnamed_addr constant [5 x i8] c"%s%s\00", align 1
@.str.2 = private unnamed_addr constant [6 x i8] c"error\00", align 1
@.str.3 = private unnamed_addr constant [4 x i8] c"yes\00", align 1
@.str.4 = private unnamed_addr constant [3 x i8] c"no\00", align 1

; Function Attrs: noinline nounwind uwtable
define dso_local i32 @main() #0 {
  %1 = alloca i32, align 4
  %2 = alloca double, align 8
  %3 = alloca double, align 8
  %4 = alloca i32, align 4
  %5 = alloca i32, align 4
  %6 = alloca i32, align 4
  %7 = alloca [501 x i8], align 16
  %8 = alloca [501 x i8], align 16
  store i32 0, i32* %1, align 4
  store double 0.000000e+00, double* %3, align 8
  store i32 0, i32* %5, align 4
  %9 = call i32 (i8*, ...) @__isoc99_scanf(i8* getelementptr inbounds ([4 x i8], [4 x i8]* @.str, i64 0, i64 0), double* %2)
  %10 = getelementptr inbounds [501 x i8], [501 x i8]* %7, i64 0, i64 0
  %11 = getelementptr inbounds [501 x i8], [501 x i8]* %8, i64 0, i64 0
  %12 = call i32 (i8*, ...) @__isoc99_scanf(i8* getelementptr inbounds ([5 x i8], [5 x i8]* @.str.1, i64 0, i64 0), i8* %10, i8* %11)
  %13 = getelementptr inbounds [501 x i8], [501 x i8]* %7, i64 0, i64 0
  %14 = call i64 @strlen(i8* %13) #3
  %15 = getelementptr inbounds [501 x i8], [501 x i8]* %8, i64 0, i64 0
  %16 = call i64 @strlen(i8* %15) #3
  %17 = icmp ne i64 %14, %16
  br i1 %17, label %18, label %20

18:                                               ; preds = %0
  %19 = call i32 (i8*, ...) @printf(i8* getelementptr inbounds ([6 x i8], [6 x i8]* @.str.2, i64 0, i64 0))
  br label %107

20:                                               ; preds = %0
  %21 = getelementptr inbounds [501 x i8], [501 x i8]* %7, i64 0, i64 0
  %22 = call i64 @strlen(i8* %21) #3
  %23 = trunc i64 %22 to i32
  store i32 %23, i32* %6, align 4
  store i32 0, i32* %4, align 4
  br label %24

24:                                               ; preds = %60, %20
  %25 = load i32, i32* %4, align 4
  %26 = load i32, i32* %6, align 4
  %27 = icmp slt i32 %25, %26
  br i1 %27, label %28, label %63

28:                                               ; preds = %24
  %29 = load i32, i32* %4, align 4
  %30 = sext i32 %29 to i64
  %31 = getelementptr inbounds [501 x i8], [501 x i8]* %7, i64 0, i64 %30
  %32 = load i8, i8* %31, align 1
  %33 = sext i8 %32 to i32
  %34 = icmp eq i32 %33, 71
  br i1 %34, label %56, label %35

35:                                               ; preds = %28
  %36 = load i32, i32* %4, align 4
  %37 = sext i32 %36 to i64
  %38 = getelementptr inbounds [501 x i8], [501 x i8]* %7, i64 0, i64 %37
  %39 = load i8, i8* %38, align 1
  %40 = sext i8 %39 to i32
  %41 = icmp eq i32 %40, 65
  br i1 %41, label %56, label %42

42:                                               ; preds = %35
  %43 = load i32, i32* %4, align 4
  %44 = sext i32 %43 to i64
  %45 = getelementptr inbounds [501 x i8], [501 x i8]* %7, i64 0, i64 %44
  %46 = load i8, i8* %45, align 1
  %47 = sext i8 %46 to i32
  %48 = icmp eq i32 %47, 67
  br i1 %48, label %56, label %49

49:                                               ; preds = %42
  %50 = load i32, i32* %4, align 4
  %51 = sext i32 %50 to i64
  %52 = getelementptr inbounds [501 x i8], [501 x i8]* %7, i64 0, i64 %51
  %53 = load i8, i8* %52, align 1
  %54 = sext i8 %53 to i32
  %55 = icmp eq i32 %54, 84
  br i1 %55, label %56, label %59

56:                                               ; preds = %49, %42, %35, %28
  %57 = load i32, i32* %5, align 4
  %58 = add nsw i32 %57, 1
  store i32 %58, i32* %5, align 4
  br label %59

59:                                               ; preds = %56, %49
  br label %60

60:                                               ; preds = %59
  %61 = load i32, i32* %4, align 4
  %62 = add nsw i32 %61, 1
  store i32 %62, i32* %4, align 4
  br label %24

63:                                               ; preds = %24
  %64 = load i32, i32* %5, align 4
  %65 = load i32, i32* %6, align 4
  %66 = icmp ne i32 %64, %65
  br i1 %66, label %67, label %69

67:                                               ; preds = %63
  %68 = call i32 (i8*, ...) @printf(i8* getelementptr inbounds ([6 x i8], [6 x i8]* @.str.2, i64 0, i64 0))
  store i32 0, i32* %1, align 4
  br label %108

69:                                               ; preds = %63
  store i32 0, i32* %4, align 4
  br label %70

70:                                               ; preds = %91, %69
  %71 = load i32, i32* %4, align 4
  %72 = load i32, i32* %6, align 4
  %73 = icmp slt i32 %71, %72
  br i1 %73, label %74, label %94

74:                                               ; preds = %70
  %75 = load i32, i32* %4, align 4
  %76 = sext i32 %75 to i64
  %77 = getelementptr inbounds [501 x i8], [501 x i8]* %7, i64 0, i64 %76
  %78 = load i8, i8* %77, align 1
  %79 = sext i8 %78 to i32
  %80 = load i32, i32* %4, align 4
  %81 = sext i32 %80 to i64
  %82 = getelementptr inbounds [501 x i8], [501 x i8]* %8, i64 0, i64 %81
  %83 = load i8, i8* %82, align 1
  %84 = sext i8 %83 to i32
  %85 = sub nsw i32 %79, %84
  %86 = icmp eq i32 %85, 0
  br i1 %86, label %87, label %90

87:                                               ; preds = %74
  %88 = load double, double* %3, align 8
  %89 = fadd double %88, 1.000000e+00
  store double %89, double* %3, align 8
  br label %90

90:                                               ; preds = %87, %74
  br label %91

91:                                               ; preds = %90
  %92 = load i32, i32* %4, align 4
  %93 = add nsw i32 %92, 1
  store i32 %93, i32* %4, align 4
  br label %70

94:                                               ; preds = %70
  %95 = load double, double* %3, align 8
  %96 = load i32, i32* %6, align 4
  %97 = sitofp i32 %96 to double
  %98 = fdiv double %95, %97
  %99 = load double, double* %2, align 8
  %100 = fcmp ogt double %98, %99
  br i1 %100, label %101, label %103

101:                                              ; preds = %94
  %102 = call i32 (i8*, ...) @printf(i8* getelementptr inbounds ([4 x i8], [4 x i8]* @.str.3, i64 0, i64 0))
  br label %105

103:                                              ; preds = %94
  %104 = call i32 (i8*, ...) @printf(i8* getelementptr inbounds ([3 x i8], [3 x i8]* @.str.4, i64 0, i64 0))
  br label %105

105:                                              ; preds = %103, %101
  br label %106

106:                                              ; preds = %105
  br label %107

107:                                              ; preds = %106, %18
  store i32 0, i32* %1, align 4
  br label %108

108:                                              ; preds = %107, %67
  %109 = load i32, i32* %1, align 4
  ret i32 %109
}

declare dso_local i32 @__isoc99_scanf(i8*, ...) #1

; Function Attrs: nounwind readonly
declare dso_local i64 @strlen(i8*) #2

declare dso_local i32 @printf(i8*, ...) #1


!llvm.module.flags = !{!0}
!llvm.ident = !{!1}

!0 = !{i32 1, !"wchar_size", i32 4}
!1 = !{!"clang version 10.0.0-4ubuntu1 "}
